target datalayout = "e-m:e-p270:32:32-p271:32:32-p272:64:64-i64:64-i128:128-f80:128-n8:16:32:64-S128"
target triple = "x86_64-pc-linux-gnu"

%struct._zend_alloc_globals = type { ptr }
%struct._zval_struct = type { %union._zend_value, %union.anon, %union.anon.3 }
%union._zend_value = type { i64 }
%union.anon = type { i32 }
%union.anon.3 = type { i32 }
%struct._zend_mm_heap = type { i32, ptr, i64, i64, [30 x ptr], i64, i64, i64, i32, ptr, ptr, ptr, i32, i32, i32, double, i32, i32, %struct.anon, ptr }
%struct.anon = type { ptr, ptr, ptr }

@alloc_globals = internal global %struct._zend_alloc_globals zeroinitializer, align 8
@.str.5 = private unnamed_addr constant [73 x i8] c"Allowed memory size of %zu bytes exhausted (tried to allocate %zu bytes)\00", align 1

; Function Attrs: nounwind uwtable
define internal ptr @tracked_malloc(i64 noundef %0) #0 {
  %2 = alloca ptr, align 8
  %3 = alloca ptr, align 8
  %4 = alloca i64, align 8
  %5 = alloca %struct._zval_struct, align 8
  %6 = alloca i64, align 8
  %7 = alloca ptr, align 8
  %8 = alloca ptr, align 8
  %9 = alloca i64, align 8
  %10 = alloca i64, align 8
  %11 = alloca ptr, align 8
  %12 = alloca ptr, align 8
  store i64 %0, ptr %10, align 8
  %13 = load ptr, ptr @alloc_globals, align 8
  store ptr %13, ptr %11, align 8
  %14 = load ptr, ptr %11, align 8
  %15 = load i64, ptr %10, align 8
  store ptr %14, ptr %8, align 8
  store i64 %15, ptr %9, align 8
  %16 = load i64, ptr %9, align 8
  %17 = load ptr, ptr %8, align 8
  %18 = getelementptr inbounds %struct._zend_mm_heap, ptr %17, i32 0, i32 7
  %19 = load i64, ptr %18, align 8
  %20 = load ptr, ptr %8, align 8
  %21 = getelementptr inbounds %struct._zend_mm_heap, ptr %20, i32 0, i32 2
  %22 = load i64, ptr %21, align 8
  %23 = sub i64 %19, %22
  %24 = icmp ugt i64 %16, %23
  br i1 %24, label %25, label %36

25:                                               ; preds = %1
  %26 = load ptr, ptr %8, align 8
  %27 = getelementptr inbounds %struct._zend_mm_heap, ptr %26, i32 0, i32 8
  %28 = load i32, ptr %27, align 8
  %29 = icmp ne i32 %28, 0
  br i1 %29, label %36, label %30

30:                                               ; preds = %25
  %31 = load ptr, ptr %8, align 8
  %32 = load ptr, ptr %8, align 8
  %33 = getelementptr inbounds %struct._zend_mm_heap, ptr %32, i32 0, i32 7
  %34 = load i64, ptr %33, align 8
  %35 = load i64, ptr %9, align 8
  call void @zend_mm_safe_error(ptr noundef %31, ptr noundef @.str.5, i64 noundef %34, i64 noundef %35) #19
  unreachable

36:                                               ; preds = %25, %1
  %37 = load i64, ptr %10, align 8
  %38 = call noalias ptr @malloc(i64 noundef %37) #22
  store ptr %38, ptr %12, align 8
  %39 = load ptr, ptr %12, align 8
  %40 = icmp ne ptr %39, null
  br i1 %40, label %42, label %41

41:                                               ; preds = %36
  call void @zend_out_of_memory() #19
  unreachable

42:                                               ; preds = %36
  %43 = load ptr, ptr %11, align 8
  %44 = load ptr, ptr %12, align 8
  %45 = load i64, ptr %10, align 8
  store ptr %43, ptr %2, align 8
  store ptr %44, ptr %3, align 8
  store i64 %45, ptr %4, align 8
  %46 = load ptr, ptr %3, align 8
  %47 = ptrtoint ptr %46 to i64
  %48 = lshr i64 %47, 3
  store i64 %48, ptr %6, align 8
  %49 = load i64, ptr %6, align 8
  %50 = shl i64 %49, 3
  %51 = inttoptr i64 %50 to ptr
  %52 = load ptr, ptr %3, align 8
  %53 = icmp eq ptr %51, %52
  call void @llvm.assume(i1 %53)
  store ptr %5, ptr %7, align 8
  %54 = load i64, ptr %4, align 8
  %55 = load ptr, ptr %7, align 8
  store i64 %54, ptr %55, align 8
  %56 = load ptr, ptr %7, align 8
  %57 = getelementptr inbounds %struct._zval_struct, ptr %56, i32 0, i32 1
  store i32 4, ptr %57, align 8
  %58 = load ptr, ptr %2, align 8
  %59 = getelementptr inbounds %struct._zend_mm_heap, ptr %58, i32 0, i32 19
  %60 = load ptr, ptr %59, align 8
  %61 = load i64, ptr %6, align 8
  %62 = call ptr @zend_hash_index_add_new(ptr noundef %60, i64 noundef %61, ptr noundef %5) #20
  %63 = load i64, ptr %10, align 8
  %64 = load ptr, ptr %11, align 8
  %65 = getelementptr inbounds %struct._zend_mm_heap, ptr %64, i32 0, i32 2
  %66 = load i64, ptr %65, align 8
  %67 = add i64 %66, %63
  store i64 %67, ptr %65, align 8
  %68 = load ptr, ptr %12, align 8
  ret ptr %68
}