; Function Attrs: nounwind uwtable
define internal noundef ptr @tracked_malloc(i64 noundef %0) #0 {
  %2 = alloca %struct._zval_struct, align 8
  %3 = load ptr, ptr @alloc_globals.0, align 8
  %4 = getelementptr inbounds i8, ptr %3, i64 288
  %5 = load i64, ptr %4, align 8
  %6 = getelementptr inbounds i8, ptr %3, i64 16
  %7 = load i64, ptr %6, align 8
  %8 = sub i64 %5, %7
  %9 = icmp ult i64 %8, %0
  br i1 %9, label %10, label %14

10:                                               ; preds = %1
  %11 = getelementptr inbounds i8, ptr %3, i64 296
  %12 = load i32, ptr %11, align 8
  %.not = icmp eq i32 %12, 0
  br i1 %.not, label %13, label %14

13:                                               ; preds = %10
  tail call fastcc void @zend_mm_safe_error(ptr noundef nonnull %3, ptr noundef nonnull @.str.5, i64 noundef %5, i64 noundef %0) #34
  unreachable

14:                                               ; preds = %10, %1
  %15 = tail call noalias ptr @malloc(i64 noundef %0) #39
  %.not25 = icmp eq ptr %15, null
  br i1 %.not25, label %16, label %17

16:                                               ; preds = %14
  tail call fastcc void @zend_out_of_memory() #34
  unreachable

17:                                               ; preds = %14
  %18 = ptrtoint ptr %15 to i64
  %19 = lshr i64 %18, 3
  %20 = and i64 %18, -8
  %21 = inttoptr i64 %20 to ptr
  %22 = icmp eq ptr %15, %21
  tail call void @llvm.assume(i1 %22)
  store i64 %0, ptr %2, align 8
  %23 = getelementptr inbounds i8, ptr %2, i64 8
  store i32 4, ptr %23, align 8
  %24 = getelementptr inbounds i8, ptr %3, i64 384
  %25 = load ptr, ptr %24, align 8
  %26 = call ptr @zend_hash_index_add_new(ptr noundef %25, i64 noundef %19, ptr noundef nonnull %2) #35
  %27 = load i64, ptr %6, align 8
  %28 = add i64 %27, %0
  store i64 %28, ptr %6, align 8
  ret ptr %15
}